(dp1
S'output'
p2
S"<type 'exceptions.ImportError'> No module named request"
p3
sS'layer'
p4
S'/home/pi/web2py/applications/planer/controllers/display.py'
p5
sS'code'
p6
S'# -*- coding: utf-8 -*-\n# try something like\ndef index(): return dict(message="hello from display.py")\n\ndef weather():\n  import urllib\n  from urllib.request import Request, urlopen\n  url = "http://wttr.in/Krakow?format=j1"\n  req = Request(url)\n  req.add_header(\'Accept-Language\', \'pl\')\n  content = urlopen(req).read()\n  c = json.loads(content)\n  display_weather(c)\n  return dict()\nresponse._vars=response._caller(weather)\n'
p7
sS'snapshot'
p8
(dp9
sS'traceback'
p10
S'Traceback (most recent call last):\n  File "/usr/lib/python2.7/dist-packages/gluon/restricted.py", line 227, in restricted\n    exec ccode in environment\n  File "/home/pi/web2py/applications/planer/controllers/display.py", line 15, in <module>\n  File "/usr/lib/python2.7/dist-packages/gluon/globals.py", line 412, in <lambda>\n    self._caller = lambda f: f()\n  File "/home/pi/web2py/applications/planer/controllers/display.py", line 7, in weather\n    from urllib.request import Request, urlopen\n  File "/usr/lib/python2.7/dist-packages/gluon/custom_import.py", line 108, in custom_importer\n    return NATIVE_IMPORTER(name, globals, locals, fromlist, level)\nImportError: No module named request\n'
p11
s.