(dp1
S'output'
p2
S"<class 'bdb.BdbQuit'> "
p3
sS'layer'
p4
S'/home/pi/web2py/applications/planer/controllers/display.py'
p5
sS'code'
p6
S'# -*- coding: utf-8 -*-\n# try something like\ndef index(): return dict(message="hello from display.py")\n\ndef weather():\n  import urllib2\n  import json\n  url = "http://wttr.in/Krakow?format=j1"\n  opener = urllib2.build_opener()\n  opener.addheaders = [(\'Accept-Language\', \'pl\')]\n  content = opener.open(url).read()\n  c = json.loads(content)\n  display_weather(c)\n  return dict()\n\ndef notes():\n  import datetime\n  import pdb\n  pdb.set_trace()\n  todayDate = datetime.date.today()\n  today = todayDate.strftime("%d.%m.%y")\n\n  todayJson = {}\n  todayJsonPathFile = Path(JSON_DIR_PATH + today + \'.json\')\n  if not todayJsonPathFile.is_file(): \n    todayJson = createNewJsonDay(todayDate.strftime("%a"))\n  else:\n    with open(str(todayJsonPathFile), \'r\') as todayNote:\n      todayJson = json.loads(todayNote.read())\n\n  todayTaskPath = Path(\'./notes/\' + today)\n  if todayTaskPath.is_file():\n    with open(str(todayTaskPath), \'r\') as todayTasksFile:\n      tasksFromFile = todayTasksFile.readlines()\n      for fileTask in tasksFromFile:\n        todayJson[\'notes\'].append({\'Task\': fileTask}.update(generateMetada(10)))\n  return dict()\nresponse._vars=response._caller(notes)\n'
p7
sS'snapshot'
p8
(dp9
sS'traceback'
p10
S'Traceback (most recent call last):\n  File "/usr/lib/python2.7/dist-packages/gluon/restricted.py", line 227, in restricted\n    exec ccode in environment\n  File "/home/pi/web2py/applications/planer/controllers/display.py", line 38, in <module>\n  File "/usr/lib/python2.7/dist-packages/gluon/globals.py", line 412, in <lambda>\n    self._caller = lambda f: f()\n  File "/usr/lib/python2.7/bdb.py", line 53, in trace_dispatch\n    return self.dispatch_return(frame, arg)\n  File "/usr/lib/python2.7/bdb.py", line 91, in dispatch_return\n    if self.quitting: raise BdbQuit\nBdbQuit\n'
p11
s.